target datalayout = "e-m:e-p270:32:32-p271:32:32-p272:64:64-i64:64-i128:128-f80:128-n8:16:32:64-S128"
target triple = "x86_64-pc-linux-gnu"

%struct.AVCodecContext = type { ptr, i32, i32, ptr, i32, i32, ptr, ptr, ptr, i64, i32, i32, ptr, i32, %struct.AVRational, %struct.AVRational, %struct.AVRational, i32, i32, i32, i32, i32, %struct.AVRational, i32, i32, i32, i32, i32, i32, i32, i32, i32, i32, i32, ptr, ptr, i32, float, float, float, float, float, float, float, float, float, i32, i32, i32, i32, i32, i32, i32, i32, i32, i32, i32, i32, ptr, ptr, ptr, i32, i32, i32, i32, i32, i32, i32, i32, i32, i32, %struct.AVChannelLayout, i32, i32, i32, i32, i32, i32, i32, i32, ptr, i32, i32, i32, float, float, i32, i32, i32, i32, i32, ptr, i64, i64, float, float, i32, i32, ptr, ptr, i32, i32, i32, i32, i32, ptr, ptr, ptr, ptr, i32, i32, [8 x i64], i32, i32, i32, i32, i32, i32, i32, ptr, ptr, i32, i32, i32, i32, i32, i32, i32, i32, i32, i32, ptr, ptr, i32, i32, ptr, ptr, ptr, ptr, i32, i32, i64, i32, i32, i64, ptr, i64, ptr, i32, ptr, i32 }
%struct.AVRational = type { i32, i32 }
%struct.AVChannelLayout = type { i32, i32, %union.anon, ptr }
%union.anon = type { i64 }
%struct.ThreadFrame = type { ptr, [2 x ptr], ptr }
%struct.ThreadFrameProgress = type { [2 x i32] }
%union.AVRefStructOpaque = type { ptr }

; Function Attrs: inlinehint nounwind uwtable
define internal ptr @av_refstruct_alloc_ext(i64 noundef %0, i32 noundef %1, ptr noundef %2, ptr noundef %3) #5 {
  %5 = alloca i64, align 8
  %6 = alloca i32, align 4
  %7 = alloca ptr, align 8
  %8 = alloca ptr, align 8
  %9 = alloca %union.AVRefStructOpaque, align 8
  store i64 %0, ptr %5, align 8, !tbaa !62
  store i32 %1, ptr %6, align 4, !tbaa !39
  store ptr %2, ptr %7, align 8, !tbaa !85
  store ptr %3, ptr %8, align 8, !tbaa !85
  %10 = load i64, ptr %5, align 8, !tbaa !62
  %11 = load i32, ptr %6, align 4, !tbaa !39
  %12 = load ptr, ptr %7, align 8, !tbaa !85
  store ptr %12, ptr %9, align 8, !tbaa !166
  %13 = load ptr, ptr %8, align 8, !tbaa !85
  %14 = getelementptr inbounds nuw %union.AVRefStructOpaque, ptr %9, i32 0, i32 0
  %15 = load ptr, ptr %14, align 8
  %16 = call ptr @av_refstruct_alloc_ext_c(i64 noundef %10, i32 noundef %11, ptr %15, ptr noundef %13)
  ret ptr %16
}

; Function Attrs: inlinehint nounwind uwtable
define internal ptr @av_refstruct_allocz(i64 noundef %0) #5 {
  %2 = alloca i64, align 8
  store i64 %0, ptr %2, align 8, !tbaa !62
  %3 = load i64, ptr %2, align 8, !tbaa !62
  %4 = call ptr @av_refstruct_alloc_ext(i64 noundef %3, i32 noundef 0, ptr noundef null, ptr noundef null)
  ret ptr %4
}

; Function Attrs: nounwind uwtable
define i32 @ff_thread_get_ext_buffer(ptr noundef %0, ptr noundef %1, i32 noundef %2) #0 {
  %4 = alloca i32, align 4
  %5 = alloca ptr, align 8
  %6 = alloca ptr, align 8
  %7 = alloca i32, align 4
  %8 = alloca i32, align 4
  %9 = alloca i32, align 4
  store ptr %0, ptr %5, align 8, !tbaa !4
  store ptr %1, ptr %6, align 8, !tbaa !134
  store i32 %2, ptr %7, align 4, !tbaa !39
  call void @llvm.lifetime.start.p0(i64 4, ptr %8) #9
  %10 = load ptr, ptr %5, align 8, !tbaa !4
  %11 = load ptr, ptr %6, align 8, !tbaa !134
  %12 = getelementptr inbounds nuw %struct.ThreadFrame, ptr %11, i32 0, i32 1
  %13 = getelementptr inbounds [2 x ptr], ptr %12, i64 0, i64 1
  store ptr %10, ptr %13, align 8, !tbaa !4
  %14 = load ptr, ptr %6, align 8, !tbaa !134
  %15 = getelementptr inbounds nuw %struct.ThreadFrame, ptr %14, i32 0, i32 1
  %16 = getelementptr inbounds [2 x ptr], ptr %15, i64 0, i64 0
  store ptr %10, ptr %16, align 8, !tbaa !4
  %17 = load ptr, ptr %5, align 8, !tbaa !4
  %18 = getelementptr inbounds nuw %struct.AVCodecContext, ptr %17, i32 0, i32 118
  %19 = load i32, ptr %18, align 8, !tbaa !140
  %20 = and i32 %19, 1
  %21 = icmp ne i32 %20, 0
  br i1 %21, label %29, label %22

22:                                               ; preds = %3
  %23 = load ptr, ptr %5, align 8, !tbaa !4
  %24 = load ptr, ptr %6, align 8, !tbaa !134
  %25 = getelementptr inbounds nuw %struct.ThreadFrame, ptr %24, i32 0, i32 0
  %26 = load ptr, ptr %25, align 8, !tbaa !182
  %27 = load i32, ptr %7, align 4, !tbaa !39
  %28 = call i32 @ff_get_buffer(ptr noundef %23, ptr noundef %26, i32 noundef %27)
  store i32 %28, ptr %4, align 4
  store i32 1, ptr %9, align 4
  br label %62

29:                                               ; preds = %3
  %30 = call ptr @av_refstruct_allocz(i64 noundef 8)
  %31 = load ptr, ptr %6, align 8, !tbaa !134
  %32 = getelementptr inbounds nuw %struct.ThreadFrame, ptr %31, i32 0, i32 2
  store ptr %30, ptr %32, align 8, !tbaa !136
  %33 = load ptr, ptr %6, align 8, !tbaa !134
  %34 = getelementptr inbounds nuw %struct.ThreadFrame, ptr %33, i32 0, i32 2
  %35 = load ptr, ptr %34, align 8, !tbaa !136
  %36 = icmp ne ptr %35, null
  br i1 %36, label %38, label %37

37:                                               ; preds = %29
  store i32 -12, ptr %4, align 4
  store i32 1, ptr %9, align 4
  br label %62

38:                                               ; preds = %29
  %39 = load ptr, ptr %6, align 8, !tbaa !134
  %40 = getelementptr inbounds nuw %struct.ThreadFrame, ptr %39, i32 0, i32 2
  %41 = load ptr, ptr %40, align 8, !tbaa !136
  %42 = getelementptr inbounds nuw %struct.ThreadFrameProgress, ptr %41, i32 0, i32 0
  %43 = getelementptr inbounds [2 x i32], ptr %42, i64 0, i64 0
  store i32 -1, ptr %43, align 4, !tbaa !166
  %44 = load ptr, ptr %6, align 8, !tbaa !134
  %45 = getelementptr inbounds nuw %struct.ThreadFrame, ptr %44, i32 0, i32 2
  %46 = load ptr, ptr %45, align 8, !tbaa !136
  %47 = getelementptr inbounds nuw %struct.ThreadFrameProgress, ptr %46, i32 0, i32 0
  %48 = getelementptr inbounds [2 x i32], ptr %47, i64 0, i64 1
  store i32 -1, ptr %48, align 4, !tbaa !166
  %49 = load ptr, ptr %5, align 8, !tbaa !4
  %50 = load ptr, ptr %6, align 8, !tbaa !134
  %51 = getelementptr inbounds nuw %struct.ThreadFrame, ptr %50, i32 0, i32 0
  %52 = load ptr, ptr %51, align 8, !tbaa !182
  %53 = load i32, ptr %7, align 4, !tbaa !39
  %54 = call i32 @ff_thread_get_buffer(ptr noundef %49, ptr noundef %52, i32 noundef %53)
  store i32 %54, ptr %8, align 4, !tbaa !39
  %55 = load i32, ptr %8, align 4, !tbaa !39
  %56 = icmp ne i32 %55, 0
  br i1 %56, label %57, label %60

57:                                               ; preds = %38
  %58 = load ptr, ptr %6, align 8, !tbaa !134
  %59 = getelementptr inbounds nuw %struct.ThreadFrame, ptr %58, i32 0, i32 2
  call void @av_refstruct_unref(ptr noundef %59)
  br label %60

60:                                               ; preds = %57, %38
  %61 = load i32, ptr %8, align 4, !tbaa !39
  store i32 %61, ptr %4, align 4
  store i32 1, ptr %9, align 4
  br label %62

62:                                               ; preds = %60, %37, %22
  call void @llvm.lifetime.end.p0(i64 4, ptr %8) #9
  %63 = load i32, ptr %4, align 4
  ret i32 %63
}