; Function Attrs: nounwind uwtable
define i32 @ff_thread_get_ext_buffer(ptr noundef %0, ptr noundef initializes((8, 24)) %1, i32 noundef %2) local_unnamed_addr #0 {
  %4 = getelementptr inbounds nuw i8, ptr %1, i64 8
  %5 = getelementptr inbounds nuw i8, ptr %1, i64 16
  store ptr %0, ptr %5, align 8, !tbaa !134
  store ptr %0, ptr %4, align 8, !tbaa !134
  %6 = getelementptr inbounds nuw i8, ptr %0, i64 664
  %7 = load i32, ptr %6, align 8, !tbaa !136
  %8 = and i32 %7, 1
  %.not = icmp eq i32 %8, 0
  br i1 %.not, label %9, label %12

9:                                                ; preds = %3
  %10 = load ptr, ptr %1, align 8, !tbaa !176
  %11 = tail call i32 @ff_get_buffer(ptr noundef nonnull %0, ptr noundef %10, i32 noundef %2) #11
  br label %21

12:                                               ; preds = %3
  %13 = tail call ptr @av_refstruct_alloc_ext_c(i64 noundef 8, i32 noundef 0, ptr null, ptr noundef null) #11
  %14 = getelementptr inbounds nuw i8, ptr %1, i64 24
  store ptr %13, ptr %14, align 8, !tbaa !131
  %.not18 = icmp eq ptr %13, null
  br i1 %.not18, label %21, label %15

15:                                               ; preds = %12
  store i32 -1, ptr %13, align 4, !tbaa !161
  %16 = load ptr, ptr %14, align 8, !tbaa !131
  %17 = getelementptr inbounds nuw i8, ptr %16, i64 4
  store i32 -1, ptr %17, align 4, !tbaa !161
  %18 = load ptr, ptr %1, align 8, !tbaa !176
  %19 = tail call i32 @ff_thread_get_buffer(ptr noundef nonnull %0, ptr noundef %18, i32 noundef %2)
  %.not19 = icmp eq i32 %19, 0
  br i1 %.not19, label %21, label %20

20:                                               ; preds = %15
  tail call void @av_refstruct_unref(ptr noundef nonnull %14) #11
  br label %21

21:                                               ; preds = %15, %20, %12, %9
  %.0 = phi i32 [ %11, %9 ], [ -12, %12 ], [ %19, %20 ], [ 0, %15 ]
  ret i32 %.0
}